; ModuleID = 'source-C-CXX/35/1255.cpp'
source_filename = "source-C-CXX/35/1255.cpp"
target datalayout = "e-m:e-p270:32:32-p271:32:32-p272:64:64-i64:64-f80:128-n8:16:32:64-S128"
target triple = "x86_64-pc-linux-gnu"

%"class.std::ios_base::Init" = type { i8 }
%"class.std::basic_istream" = type { i32 (...)**, i64, %"class.std::basic_ios" }
%"class.std::basic_ios" = type { %"class.std::ios_base", %"class.std::basic_ostream"*, i8, i8, %"class.std::basic_streambuf"*, %"class.std::ctype"*, %"class.std::num_put"*, %"class.std::num_get"* }
%"class.std::ios_base" = type { i32 (...)**, i64, i64, i32, i32, i32, %"struct.std::ios_base::_Callback_list"*, %"struct.std::ios_base::_Words", [8 x %"struct.std::ios_base::_Words"], i32, %"struct.std::ios_base::_Words"*, %"class.std::locale" }
%"struct.std::ios_base::_Callback_list" = type { %"struct.std::ios_base::_Callback_list"*, void (i32, %"class.std::ios_base"*, i32)*, i32, i32 }
%"struct.std::ios_base::_Words" = type { i8*, i64 }
%"class.std::locale" = type { %"class.std::locale::_Impl"* }
%"class.std::locale::_Impl" = type { i32, %"class.std::locale::facet"**, i64, %"class.std::locale::facet"**, i8** }
%"class.std::locale::facet" = type <{ i32 (...)**, i32, [4 x i8] }>
%"class.std::basic_ostream" = type { i32 (...)**, %"class.std::basic_ios" }
%"class.std::basic_streambuf" = type { i32 (...)**, i8*, i8*, i8*, i8*, i8*, i8*, %"class.std::locale" }
%"class.std::ctype" = type <{ %"class.std::locale::facet.base", [4 x i8], %struct.__locale_struct*, i8, [7 x i8], i32*, i32*, i16*, i8, [256 x i8], [256 x i8], i8, [6 x i8] }>
%"class.std::locale::facet.base" = type <{ i32 (...)**, i32 }>
%struct.__locale_struct = type { [13 x %struct.__locale_data*], i16*, i32*, i32*, [13 x i8*] }
%struct.__locale_data = type opaque
%"class.std::num_put" = type { %"class.std::locale::facet.base", [4 x i8] }
%"class.std::num_get" = type { %"class.std::locale::facet.base", [4 x i8] }

@_ZStL8__ioinit = internal global %"class.std::ios_base::Init" zeroinitializer, align 1
@__dso_handle = external hidden global i8
@_ZSt3cin = external global %"class.std::basic_istream", align 8
@_ZSt4cout = external global %"class.std::basic_ostream", align 8
@.str = private unnamed_addr constant [4 x i8] c"YES\00", align 1
@.str.1 = private unnamed_addr constant [3 x i8] c"NO\00", align 1
@llvm.global_ctors = appending global [1 x { i32, void ()*, i8* }] [{ i32, void ()*, i8* } { i32 65535, void ()* @_GLOBAL__sub_I_1255.cpp, i8* null }]

declare void @_ZNSt8ios_base4InitC1Ev(%"class.std::ios_base::Init"* nonnull align 1 dereferenceable(1)) unnamed_addr #0

; Function Attrs: nounwind
declare void @_ZNSt8ios_base4InitD1Ev(%"class.std::ios_base::Init"* nonnull align 1 dereferenceable(1)) unnamed_addr #1

; Function Attrs: nofree nounwind
declare i32 @__cxa_atexit(void (i8*)*, i8*, i8*) local_unnamed_addr #2

; Function Attrs: mustprogress nofree nosync nounwind readonly sspstrong uwtable willreturn
define dso_local i32 @_Z5judgePcS_ii(i8* nocapture readonly %0, i8* nocapture readonly %1, i32 %2, i32 %3) local_unnamed_addr #3 {
  %5 = alloca [100 x i32], align 16
  %6 = bitcast [100 x i32]* %5 to i8*
  call void @llvm.lifetime.start.p0i8(i64 400, i8* nonnull %6) #9
  call void @llvm.memset.p0i8.i64(i8* noundef nonnull align 16 dereferenceable(400) %6, i8 0, i64 400, i1 false)
  %7 = icmp eq i32 %2, %3
  br i1 %7, label %8, label %45

8:                                                ; preds = %4
  %9 = icmp sgt i32 %2, 0
  br i1 %9, label %11, label %10

10:                                               ; preds = %29, %8
  br label %35

11:                                               ; preds = %8
  %12 = zext i32 %2 to i64
  br label %13

13:                                               ; preds = %11, %29
  %14 = phi i64 [ 0, %11 ], [ %30, %29 ]
  %15 = getelementptr inbounds i8, i8* %0, i64 %14
  br label %16

16:                                               ; preds = %13, %32
  %17 = phi i64 [ 0, %13 ], [ %33, %32 ]
  %18 = getelementptr inbounds [100 x i32], [100 x i32]* %5, i64 0, i64 %17
  %19 = load i32, i32* %18, align 4, !tbaa !5
  %20 = icmp eq i32 %19, 1
  br i1 %20, label %32, label %21

21:                                               ; preds = %16
  %22 = load i8, i8* %15, align 1, !tbaa !9
  %23 = getelementptr inbounds i8, i8* %1, i64 %17
  %24 = load i8, i8* %23, align 1, !tbaa !9
  %25 = icmp eq i8 %22, %24
  br i1 %25, label %26, label %32

26:                                               ; preds = %21
  %27 = and i64 %17, 4294967295
  %28 = getelementptr inbounds [100 x i32], [100 x i32]* %5, i64 0, i64 %27
  store i32 1, i32* %28, align 4, !tbaa !5
  br label %29

29:                                               ; preds = %32, %26
  %30 = add nuw nsw i64 %14, 1
  %31 = icmp eq i64 %30, %12
  br i1 %31, label %10, label %13, !llvm.loop !10

32:                                               ; preds = %21, %16
  %33 = add nuw nsw i64 %17, 1
  %34 = icmp eq i64 %33, %12
  br i1 %34, label %29, label %16, !llvm.loop !12

35:                                               ; preds = %10, %35
  %36 = phi i64 [ %40, %35 ], [ 0, %10 ]
  %37 = getelementptr inbounds [100 x i32], [100 x i32]* %5, i64 0, i64 %36
  %38 = load i32, i32* %37, align 4, !tbaa !5
  %39 = icmp eq i32 %38, 1
  %40 = add nuw i64 %36, 1
  br i1 %39, label %35, label %41, !llvm.loop !13

41:                                               ; preds = %35
  %42 = trunc i64 %36 to i32
  %43 = icmp eq i32 %42, %2
  %44 = zext i1 %43 to i32
  br label %45

45:                                               ; preds = %4, %41
  %46 = phi i32 [ %44, %41 ], [ 0, %4 ]
  call void @llvm.lifetime.end.p0i8(i64 400, i8* nonnull %6) #9
  ret i32 %46
}

; Function Attrs: argmemonly mustprogress nofree nosync nounwind willreturn
declare void @llvm.lifetime.start.p0i8(i64 immarg, i8* nocapture) #4

; Function Attrs: argmemonly mustprogress nofree nounwind willreturn writeonly
declare void @llvm.memset.p0i8.i64(i8* nocapture writeonly, i8, i64, i1 immarg) #5

; Function Attrs: argmemonly mustprogress nofree nosync nounwind willreturn
declare void @llvm.lifetime.end.p0i8(i64 immarg, i8* nocapture) #4

; Function Attrs: mustprogress norecurse sspstrong uwtable
define dso_local i32 @main() local_unnamed_addr #6 {
  %1 = alloca [100 x i32], align 16
  %2 = alloca [100 x i8], align 16
  %3 = alloca [100 x i8], align 16
  %4 = getelementptr inbounds [100 x i8], [100 x i8]* %2, i64 0, i64 0
  call void @llvm.lifetime.start.p0i8(i64 100, i8* nonnull %4) #9
  %5 = getelementptr inbounds [100 x i8], [100 x i8]* %3, i64 0, i64 0
  call void @llvm.lifetime.start.p0i8(i64 100, i8* nonnull %5) #9
  call void @_ZSt17__istream_extractRSiPcl(%"class.std::basic_istream"* nonnull align 8 dereferenceable(16) @_ZSt3cin, i8* nonnull %4, i64 100)
  call void @_ZSt17__istream_extractRSiPcl(%"class.std::basic_istream"* nonnull align 8 dereferenceable(16) @_ZSt3cin, i8* nonnull %5, i64 100)
  %6 = call i64 @strlen(i8* noundef nonnull %4) #10
  %7 = trunc i64 %6 to i32
  %8 = call i64 @strlen(i8* noundef nonnull %5) #10
  %9 = trunc i64 %8 to i32
  %10 = bitcast [100 x i32]* %1 to i8*
  call void @llvm.lifetime.start.p0i8(i64 400, i8* nonnull %10) #9
  call void @llvm.memset.p0i8.i64(i8* noundef nonnull align 16 dereferenceable(400) %10, i8 0, i64 400, i1 false) #9
  %11 = icmp eq i32 %7, %9
  br i1 %11, label %13, label %12

12:                                               ; preds = %0
  call void @llvm.lifetime.end.p0i8(i64 400, i8* nonnull %10) #9
  br label %51

13:                                               ; preds = %0
  %14 = icmp sgt i32 %7, 0
  br i1 %14, label %16, label %15

15:                                               ; preds = %34, %13
  br label %40

16:                                               ; preds = %13
  %17 = and i64 %6, 4294967295
  br label %18

18:                                               ; preds = %34, %16
  %19 = phi i64 [ 0, %16 ], [ %35, %34 ]
  %20 = getelementptr inbounds [100 x i8], [100 x i8]* %2, i64 0, i64 %19
  br label %21

21:                                               ; preds = %37, %18
  %22 = phi i64 [ 0, %18 ], [ %38, %37 ]
  %23 = getelementptr inbounds [100 x i32], [100 x i32]* %1, i64 0, i64 %22
  %24 = load i32, i32* %23, align 4, !tbaa !5
  %25 = icmp eq i32 %24, 1
  br i1 %25, label %37, label %26

26:                                               ; preds = %21
  %27 = load i8, i8* %20, align 1, !tbaa !9
  %28 = getelementptr inbounds [100 x i8], [100 x i8]* %3, i64 0, i64 %22
  %29 = load i8, i8* %28, align 1, !tbaa !9
  %30 = icmp eq i8 %27, %29
  br i1 %30, label %31, label %37

31:                                               ; preds = %26
  %32 = and i64 %22, 4294967295
  %33 = getelementptr inbounds [100 x i32], [100 x i32]* %1, i64 0, i64 %32
  store i32 1, i32* %33, align 4, !tbaa !5
  br label %34

34:                                               ; preds = %37, %31
  %35 = add nuw nsw i64 %19, 1
  %36 = icmp eq i64 %35, %17
  br i1 %36, label %15, label %18, !llvm.loop !10

37:                                               ; preds = %26, %21
  %38 = add nuw nsw i64 %22, 1
  %39 = icmp eq i64 %38, %17
  br i1 %39, label %34, label %21, !llvm.loop !12

40:                                               ; preds = %15, %40
  %41 = phi i64 [ %45, %40 ], [ 0, %15 ]
  %42 = getelementptr inbounds [100 x i32], [100 x i32]* %1, i64 0, i64 %41
  %43 = load i32, i32* %42, align 4, !tbaa !5
  %44 = icmp eq i32 %43, 1
  %45 = add nuw i64 %41, 1
  br i1 %44, label %40, label %46, !llvm.loop !13

46:                                               ; preds = %40
  %47 = trunc i64 %41 to i32
  %48 = icmp eq i32 %47, %7
  call void @llvm.lifetime.end.p0i8(i64 400, i8* nonnull %10) #9
  br i1 %48, label %49, label %51

49:                                               ; preds = %46
  %50 = call nonnull align 8 dereferenceable(8) %"class.std::basic_ostream"* @_ZSt16__ostream_insertIcSt11char_traitsIcEERSt13basic_ostreamIT_T0_ES6_PKS3_l(%"class.std::basic_ostream"* nonnull align 8 dereferenceable(8) @_ZSt4cout, i8* nonnull getelementptr inbounds ([4 x i8], [4 x i8]* @.str, i64 0, i64 0), i64 3)
  br label %53

51:                                               ; preds = %12, %46
  %52 = call nonnull align 8 dereferenceable(8) %"class.std::basic_ostream"* @_ZSt16__ostream_insertIcSt11char_traitsIcEERSt13basic_ostreamIT_T0_ES6_PKS3_l(%"class.std::basic_ostream"* nonnull align 8 dereferenceable(8) @_ZSt4cout, i8* nonnull getelementptr inbounds ([3 x i8], [3 x i8]* @.str.1, i64 0, i64 0), i64 2)
  br label %53

53:                                               ; preds = %51, %49
  call void @llvm.lifetime.end.p0i8(i64 100, i8* nonnull %5) #9
  call void @llvm.lifetime.end.p0i8(i64 100, i8* nonnull %4) #9
  ret i32 0
}

; Function Attrs: argmemonly mustprogress nofree nounwind readonly willreturn
declare i64 @strlen(i8* nocapture) local_unnamed_addr #7

declare void @_ZSt17__istream_extractRSiPcl(%"class.std::basic_istream"* nonnull align 8 dereferenceable(16), i8*, i64) local_unnamed_addr #0

declare nonnull align 8 dereferenceable(8) %"class.std::basic_ostream"* @_ZSt16__ostream_insertIcSt11char_traitsIcEERSt13basic_ostreamIT_T0_ES6_PKS3_l(%"class.std::basic_ostream"* nonnull align 8 dereferenceable(8), i8*, i64) local_unnamed_addr #0

; Function Attrs: sspstrong uwtable
define internal void @_GLOBAL__sub_I_1255.cpp() #8 section ".text.startup" {
  tail call void @_ZNSt8ios_base4InitC1Ev(%"class.std::ios_base::Init"* nonnull align 1 dereferenceable(1) @_ZStL8__ioinit)
  %1 = tail call i32 @__cxa_atexit(void (i8*)* bitcast (void (%"class.std::ios_base::Init"*)* @_ZNSt8ios_base4InitD1Ev to void (i8*)*), i8* getelementptr inbounds (%"class.std::ios_base::Init", %"class.std::ios_base::Init"* @_ZStL8__ioinit, i64 0, i32 0), i8* nonnull @__dso_handle) #9
  ret void
}


!llvm.module.flags = !{!0, !1, !2, !3}
!llvm.ident = !{!4}

!0 = !{i32 1, !"wchar_size", i32 4}
!1 = !{i32 7, !"PIC Level", i32 2}
!2 = !{i32 7, !"PIE Level", i32 2}
!3 = !{i32 7, !"uwtable", i32 1}
!4 = !{!"clang version 13.0.0"}
!5 = !{!6, !6, i64 0}
!6 = !{!"int", !7, i64 0}
!7 = !{!"omnipotent char", !8, i64 0}
!8 = !{!"Simple C++ TBAA"}
!9 = !{!7, !7, i64 0}
!10 = distinct !{!10, !11}
!11 = !{!"llvm.loop.mustprogress"}
!12 = distinct !{!12, !11}
!13 = distinct !{!13, !11}
